GAS LISTING /tmp/cc7PY28W.s 			page 1


   1              		.file	"main.c"
   2              		.text
   3              	.Ltext0:
   4              		.file 0 "/code" "./files/main.c"
   5              		.globl	orig_termios
   6              		.bss
   7              		.align 32
   8              		.type	orig_termios, @object
   9              		.size	orig_termios, 60
  10              	orig_termios:
  11 0000 00000000 		.zero	60
  11      00000000 
  11      00000000 
  11      00000000 
  11      00000000 
  12              		.text
  13              		.globl	disableRawMode
  14              		.type	disableRawMode, @function
  15              	disableRawMode:
  16              	.LFB6:
  17              		.file 1 "./files/main.c"
   1:./files/main.c **** #include <stdlib.h>
   2:./files/main.c **** #include <termios.h>
   3:./files/main.c **** #include <unistd.h>
   4:./files/main.c **** #include <stdio.h>
   5:./files/main.c **** #include <signal.h>
   6:./files/main.c **** 
   7:./files/main.c **** // This code is used to switch terminal in 'raw' mode at startup
   8:./files/main.c **** // 'cooked': terminal input is buffered, and sent to program only after ENTER is pressed.
   9:./files/main.c **** // 'raw': terminal input is not buffered, each keystroke is sent directly to the program
  10:./files/main.c **** 
  11:./files/main.c **** // Due to how our primitives work, we need 'raw' mode
  12:./files/main.c **** 
  13:./files/main.c **** // Credits to https://viewsourcecode.org/snaptoken/kilo/02.enteringRawMode.html
  14:./files/main.c **** 
  15:./files/main.c **** struct termios orig_termios;
  16:./files/main.c **** 
  17:./files/main.c **** void disableRawMode() {
  18              		.loc 1 17 23
  19              		.cfi_startproc
  20 0000 55       		pushl	%ebp
  21              		.cfi_def_cfa_offset 8
  22              		.cfi_offset 5, -8
  23 0001 89E5     		movl	%esp, %ebp
  24              		.cfi_def_cfa_register 5
  25 0003 53       		pushl	%ebx
  26 0004 83EC04   		subl	$4, %esp
  27              		.cfi_offset 3, -12
  28 0007 E8FCFFFF 		call	__x86.get_pc_thunk.ax
  28      FF
  29 000c 05010000 		addl	$_GLOBAL_OFFSET_TABLE_, %eax
  29      00
  18:./files/main.c ****   tcsetattr(STDIN_FILENO, TCSAFLUSH, &orig_termios);
  30              		.loc 1 18 3
  31 0011 83EC04   		subl	$4, %esp
  32 0014 8D900000 		leal	orig_termios@GOTOFF(%eax), %edx
  32      0000
GAS LISTING /tmp/cc7PY28W.s 			page 2


  33 001a 52       		pushl	%edx
  34 001b 6A02     		pushl	$2
  35 001d 6A00     		pushl	$0
  36 001f 89C3     		movl	%eax, %ebx
  37 0021 E8FCFFFF 		call	tcsetattr@PLT
  37      FF
  38 0026 83C410   		addl	$16, %esp
  19:./files/main.c **** }
  39              		.loc 1 19 1
  40 0029 90       		nop
  41 002a 8B5DFC   		movl	-4(%ebp), %ebx
  42 002d C9       		leave
  43              		.cfi_restore 5
  44              		.cfi_restore 3
  45              		.cfi_def_cfa 4, 4
  46 002e C3       		ret
  47              		.cfi_endproc
  48              	.LFE6:
  49              		.size	disableRawMode, .-disableRawMode
  50              		.globl	enableRawMode
  51              		.type	enableRawMode, @function
  52              	enableRawMode:
  53              	.LFB7:
  20:./files/main.c **** 
  21:./files/main.c **** void enableRawMode() {
  54              		.loc 1 21 22
  55              		.cfi_startproc
  56 002f 55       		pushl	%ebp
  57              		.cfi_def_cfa_offset 8
  58              		.cfi_offset 5, -8
  59 0030 89E5     		movl	%esp, %ebp
  60              		.cfi_def_cfa_register 5
  61 0032 53       		pushl	%ebx
  62 0033 83EC44   		subl	$68, %esp
  63              		.cfi_offset 3, -12
  64 0036 E8FCFFFF 		call	__x86.get_pc_thunk.bx
  64      FF
  65 003b 81C30200 		addl	$_GLOBAL_OFFSET_TABLE_, %ebx
  65      0000
  66              		.loc 1 21 22
  67 0041 65A11400 		movl	%gs:20, %eax
  67      0000
  68 0047 8945F4   		movl	%eax, -12(%ebp)
  69 004a 31C0     		xorl	%eax, %eax
  22:./files/main.c ****   tcgetattr(STDIN_FILENO, &orig_termios);
  70              		.loc 1 22 3
  71 004c 83EC08   		subl	$8, %esp
  72 004f 8D830000 		leal	orig_termios@GOTOFF(%ebx), %eax
  72      0000
  73 0055 50       		pushl	%eax
  74 0056 6A00     		pushl	$0
  75 0058 E8FCFFFF 		call	tcgetattr@PLT
  75      FF
  76 005d 83C410   		addl	$16, %esp
  23:./files/main.c ****   atexit(disableRawMode);
  77              		.loc 1 23 3
  78 0060 83EC0C   		subl	$12, %esp
GAS LISTING /tmp/cc7PY28W.s 			page 3


  79 0063 8D830000 		leal	disableRawMode@GOTOFF(%ebx), %eax
  79      0000
  80 0069 50       		pushl	%eax
  81 006a E8FCFFFF 		call	atexit@PLT
  81      FF
  82 006f 83C410   		addl	$16, %esp
  24:./files/main.c ****   struct termios raw = orig_termios;
  83              		.loc 1 24 18
  84 0072 8B830000 		movl	orig_termios@GOTOFF(%ebx), %eax
  84      0000
  85 0078 8945B8   		movl	%eax, -72(%ebp)
  86 007b 8B830400 		movl	4+orig_termios@GOTOFF(%ebx), %eax
  86      0000
  87 0081 8945BC   		movl	%eax, -68(%ebp)
  88 0084 8B830800 		movl	8+orig_termios@GOTOFF(%ebx), %eax
  88      0000
  89 008a 8945C0   		movl	%eax, -64(%ebp)
  90 008d 8B830C00 		movl	12+orig_termios@GOTOFF(%ebx), %eax
  90      0000
  91 0093 8945C4   		movl	%eax, -60(%ebp)
  92 0096 8B831000 		movl	16+orig_termios@GOTOFF(%ebx), %eax
  92      0000
  93 009c 8945C8   		movl	%eax, -56(%ebp)
  94 009f 8B831400 		movl	20+orig_termios@GOTOFF(%ebx), %eax
  94      0000
  95 00a5 8945CC   		movl	%eax, -52(%ebp)
  96 00a8 8B831800 		movl	24+orig_termios@GOTOFF(%ebx), %eax
  96      0000
  97 00ae 8945D0   		movl	%eax, -48(%ebp)
  98 00b1 8B831C00 		movl	28+orig_termios@GOTOFF(%ebx), %eax
  98      0000
  99 00b7 8945D4   		movl	%eax, -44(%ebp)
 100 00ba 8B832000 		movl	32+orig_termios@GOTOFF(%ebx), %eax
 100      0000
 101 00c0 8945D8   		movl	%eax, -40(%ebp)
 102 00c3 8B832400 		movl	36+orig_termios@GOTOFF(%ebx), %eax
 102      0000
 103 00c9 8945DC   		movl	%eax, -36(%ebp)
 104 00cc 8B832800 		movl	40+orig_termios@GOTOFF(%ebx), %eax
 104      0000
 105 00d2 8945E0   		movl	%eax, -32(%ebp)
 106 00d5 8B832C00 		movl	44+orig_termios@GOTOFF(%ebx), %eax
 106      0000
 107 00db 8945E4   		movl	%eax, -28(%ebp)
 108 00de 8B833000 		movl	48+orig_termios@GOTOFF(%ebx), %eax
 108      0000
 109 00e4 8945E8   		movl	%eax, -24(%ebp)
 110 00e7 8B833400 		movl	52+orig_termios@GOTOFF(%ebx), %eax
 110      0000
 111 00ed 8945EC   		movl	%eax, -20(%ebp)
 112 00f0 8B833800 		movl	56+orig_termios@GOTOFF(%ebx), %eax
 112      0000
 113 00f6 8945F0   		movl	%eax, -16(%ebp)
  25:./files/main.c ****   raw.c_oflag &= ~(OPOST);
 114              		.loc 1 25 15
 115 00f9 8B45BC   		movl	-68(%ebp), %eax
 116 00fc 83E0FE   		andl	$-2, %eax
GAS LISTING /tmp/cc7PY28W.s 			page 4


 117 00ff 8945BC   		movl	%eax, -68(%ebp)
  26:./files/main.c ****   raw.c_lflag &= ~(ECHO | ICANON);
 118              		.loc 1 26 15
 119 0102 8B45C4   		movl	-60(%ebp), %eax
 120 0105 83E0F5   		andl	$-11, %eax
 121 0108 8945C4   		movl	%eax, -60(%ebp)
  27:./files/main.c ****   tcsetattr(STDIN_FILENO, TCSAFLUSH, &raw);
 122              		.loc 1 27 3
 123 010b 83EC04   		subl	$4, %esp
 124 010e 8D45B8   		leal	-72(%ebp), %eax
 125 0111 50       		pushl	%eax
 126 0112 6A02     		pushl	$2
 127 0114 6A00     		pushl	$0
 128 0116 E8FCFFFF 		call	tcsetattr@PLT
 128      FF
 129 011b 83C410   		addl	$16, %esp
  28:./files/main.c **** }
 130              		.loc 1 28 1
 131 011e 90       		nop
 132 011f 8B45F4   		movl	-12(%ebp), %eax
 133 0122 652B0514 		subl	%gs:20, %eax
 133      000000
 134 0129 7405     		je	.L3
 135 012b E8FCFFFF 		call	__stack_chk_fail_local
 135      FF
 136              	.L3:
 137 0130 8B5DFC   		movl	-4(%ebp), %ebx
 138 0133 C9       		leave
 139              		.cfi_restore 5
 140              		.cfi_restore 3
 141              		.cfi_def_cfa 4, 4
 142 0134 C3       		ret
 143              		.cfi_endproc
 144              	.LFE7:
 145              		.size	enableRawMode, .-enableRawMode
 146              		.section	.rodata
 147              	.LC0:
 148 0000 5365676D 		.string	"Segmentation fault\r"
 148      656E7461 
 148      74696F6E 
 148      20666175 
 148      6C740D00 
 149              		.text
 150              		.globl	handler
 151              		.type	handler, @function
 152              	handler:
 153              	.LFB8:
  29:./files/main.c **** 
  30:./files/main.c **** // This code is used to catch a segmentation fault and print a message
  31:./files/main.c **** // The usual message is printed by bash, based on the exit status of the program (139)
  32:./files/main.c **** // pwsh does not, so we have to do it manually
  33:./files/main.c **** void handler(int sig) {
 154              		.loc 1 33 23
 155              		.cfi_startproc
 156 0135 55       		pushl	%ebp
 157              		.cfi_def_cfa_offset 8
 158              		.cfi_offset 5, -8
GAS LISTING /tmp/cc7PY28W.s 			page 5


 159 0136 89E5     		movl	%esp, %ebp
 160              		.cfi_def_cfa_register 5
 161 0138 53       		pushl	%ebx
 162 0139 83EC04   		subl	$4, %esp
 163              		.cfi_offset 3, -12
 164 013c E8FCFFFF 		call	__x86.get_pc_thunk.bx
 164      FF
 165 0141 81C30200 		addl	$_GLOBAL_OFFSET_TABLE_, %ebx
 165      0000
  34:./files/main.c ****   printf("Segmentation fault\r\n");
 166              		.loc 1 34 3
 167 0147 83EC0C   		subl	$12, %esp
 168 014a 8D830000 		leal	.LC0@GOTOFF(%ebx), %eax
 168      0000
 169 0150 50       		pushl	%eax
 170 0151 E8FCFFFF 		call	puts@PLT
 170      FF
 171 0156 83C410   		addl	$16, %esp
  35:./files/main.c ****   exit(128 + sig);
 172              		.loc 1 35 3
 173 0159 8B4508   		movl	8(%ebp), %eax
 174 015c 83E880   		subl	$-128, %eax
 175 015f 83EC0C   		subl	$12, %esp
 176 0162 50       		pushl	%eax
 177 0163 E8FCFFFF 		call	exit@PLT
 177      FF
 178              		.cfi_endproc
 179              	.LFE8:
 180              		.size	handler, .-handler
 181              		.globl	main
 182              		.type	main, @function
 183              	main:
 184              	.LFB9:
  36:./files/main.c **** }
  37:./files/main.c **** 
  38:./files/main.c **** // Entry point for the assembler code
  39:./files/main.c **** extern int _main();
  40:./files/main.c **** 
  41:./files/main.c **** // Actual entrypoint for the program
  42:./files/main.c **** // It is different from the DOS environment (main instead of _main) 
  43:./files/main.c **** int main() {
 185              		.loc 1 43 12
 186              		.cfi_startproc
 187 0168 8D4C2404 		leal	4(%esp), %ecx
 188              		.cfi_def_cfa 1, 0
 189 016c 83E4F0   		andl	$-16, %esp
 190 016f FF71FC   		pushl	-4(%ecx)
 191 0172 55       		pushl	%ebp
 192 0173 89E5     		movl	%esp, %ebp
 193              		.cfi_escape 0x10,0x5,0x2,0x75,0
 194 0175 53       		pushl	%ebx
 195 0176 51       		pushl	%ecx
 196              		.cfi_escape 0xf,0x3,0x75,0x78,0x6
 197              		.cfi_escape 0x10,0x3,0x2,0x75,0x7c
 198 0177 E8FCFFFF 		call	__x86.get_pc_thunk.bx
 198      FF
 199 017c 81C30200 		addl	$_GLOBAL_OFFSET_TABLE_, %ebx
GAS LISTING /tmp/cc7PY28W.s 			page 6


 199      0000
  44:./files/main.c ****     enableRawMode();
 200              		.loc 1 44 5
 201 0182 E8FCFFFF 		call	enableRawMode
 201      FF
  45:./files/main.c ****     signal(SIGSEGV, handler);
 202              		.loc 1 45 5
 203 0187 83EC08   		subl	$8, %esp
 204 018a 8D830000 		leal	handler@GOTOFF(%ebx), %eax
 204      0000
 205 0190 50       		pushl	%eax
 206 0191 6A0B     		pushl	$11
 207 0193 E8FCFFFF 		call	signal@PLT
 207      FF
 208 0198 83C410   		addl	$16, %esp
  46:./files/main.c ****     _main();
 209              		.loc 1 46 5
 210 019b E8FCFFFF 		call	_main@PLT
 210      FF
  47:./files/main.c ****     return 0;
 211              		.loc 1 47 12
 212 01a0 B8000000 		movl	$0, %eax
 212      00
  48:./files/main.c **** }...
 213              		.loc 1 48 1
 214 01a5 8D65F8   		leal	-8(%ebp), %esp
 215 01a8 59       		popl	%ecx
 216              		.cfi_restore 1
 217              		.cfi_def_cfa 1, 0
 218 01a9 5B       		popl	%ebx
 219              		.cfi_restore 3
 220 01aa 5D       		popl	%ebp
 221              		.cfi_restore 5
 222 01ab 8D61FC   		leal	-4(%ecx), %esp
 223              		.cfi_def_cfa 4, 4
 224 01ae C3       		ret
 225              		.cfi_endproc
 226              	.LFE9:
 227              		.size	main, .-main
 228              		.section	.text.__x86.get_pc_thunk.ax,"axG",@progbits,__x86.get_pc_thunk.ax,comdat
 229              		.globl	__x86.get_pc_thunk.ax
 230              		.hidden	__x86.get_pc_thunk.ax
 231              		.type	__x86.get_pc_thunk.ax, @function
 232              	__x86.get_pc_thunk.ax:
 233              	.LFB10:
 234              		.cfi_startproc
 235 0000 8B0424   		movl	(%esp), %eax
 236 0003 C3       		ret
 237              		.cfi_endproc
 238              	.LFE10:
 239              		.section	.text.__x86.get_pc_thunk.bx,"axG",@progbits,__x86.get_pc_thunk.bx,comdat
 240              		.globl	__x86.get_pc_thunk.bx
 241              		.hidden	__x86.get_pc_thunk.bx
 242              		.type	__x86.get_pc_thunk.bx, @function
 243              	__x86.get_pc_thunk.bx:
 244              	.LFB11:
 245              		.cfi_startproc
GAS LISTING /tmp/cc7PY28W.s 			page 7


 246 0000 8B1C24   		movl	(%esp), %ebx
 247 0003 C3       		ret
 248              		.cfi_endproc
 249              	.LFE11:
 250              		.text
 251              	.Letext0:
 252              		.file 2 "/usr/include/bits/termios.h"
 253              		.file 3 "/usr/include/bits/termios-struct.h"
 254              		.file 4 "/usr/include/signal.h"
 255              		.file 5 "/usr/include/stdlib.h"
 256              		.file 6 "/usr/include/termios.h"
 1046 0015 2F636F64 		.section	.note.GNU-stack,"",@progbits
 1046      65002E2F 
 1046      66696C65 
 1046      73002F75 
 1046      73722F69 
GAS LISTING /tmp/cc7PY28W.s 			page 23

